target datalayout = "e-m:e-p270:32:32-p271:32:32-p272:64:64-i64:64-i128:128-f80:128-n8:16:32:64-S128"
target triple = "x86_64-pc-linux-gnu"

%struct.strbuf = type { i64, i64, ptr }
%struct.object_id = type { [32 x i8], i32 }
%struct.index_state = type { ptr, i32, i32, i32, i32, ptr, ptr, ptr, %struct.cache_time, i8, i32, %struct.hashmap, %struct.hashmap, %struct.object_id, ptr, ptr, ptr, ptr, ptr, ptr, ptr }
%struct.cache_time = type { i32, i32 }
%struct.hashmap = type { ptr, ptr, ptr, i32, i32, i32, i32, i8 }

@.str = private unnamed_addr constant [13 x i8] c"cache-tree.c\00", align 1
@strbuf_slopbuf = external global [0 x i8], align 1
@__const.cache_tree_verify.path = private unnamed_addr constant %struct.strbuf { i64 0, i64 0, ptr @strbuf_slopbuf }, align 8
@.str.12 = private unnamed_addr constant [60 x i8] c"ensure_full_index() called twice while verifying cache tree\00", align 1
@.str.31 = private unnamed_addr constant [11 x i8] c"./strbuf.h\00", align 1
@.str.32 = private unnamed_addr constant [30 x i8] c"strbuf_setlen() beyond buffer\00", align 1

; Function Attrs: inlinehint nounwind uwtable
define internal void @strbuf_setlen(ptr noundef %0, i64 noundef %1) #5 {
  %3 = alloca ptr, align 8
  %4 = alloca i64, align 8
  store ptr %0, ptr %3, align 8, !tbaa !89
  store i64 %1, ptr %4, align 8, !tbaa !28
  %5 = load i64, ptr %4, align 8, !tbaa !28
  %6 = load ptr, ptr %3, align 8, !tbaa !89
  %7 = getelementptr inbounds nuw %struct.strbuf, ptr %6, i32 0, i32 0
  %8 = load i64, ptr %7, align 8, !tbaa !127
  %9 = icmp ne i64 %8, 0
  br i1 %9, label %10, label %15

10:                                               ; preds = %2
  %11 = load ptr, ptr %3, align 8, !tbaa !89
  %12 = getelementptr inbounds nuw %struct.strbuf, ptr %11, i32 0, i32 0
  %13 = load i64, ptr %12, align 8, !tbaa !127
  %14 = sub i64 %13, 1
  br label %16

15:                                               ; preds = %2
  br label %16

16:                                               ; preds = %15, %10
  %17 = phi i64 [ %14, %10 ], [ 0, %15 ]
  %18 = icmp ugt i64 %5, %17
  br i1 %18, label %19, label %20

19:                                               ; preds = %16
  call void (ptr, i32, ptr, ...) @BUG_fl(ptr noundef @.str.31, i32 noundef 167, ptr noundef @.str.32) #12
  unreachable

20:                                               ; preds = %16
  %21 = load i64, ptr %4, align 8, !tbaa !28
  %22 = load ptr, ptr %3, align 8, !tbaa !89
  %23 = getelementptr inbounds nuw %struct.strbuf, ptr %22, i32 0, i32 1
  store i64 %21, ptr %23, align 8, !tbaa !84
  %24 = load ptr, ptr %3, align 8, !tbaa !89
  %25 = getelementptr inbounds nuw %struct.strbuf, ptr %24, i32 0, i32 2
  %26 = load ptr, ptr %25, align 8, !tbaa !82
  %27 = icmp ne ptr %26, @strbuf_slopbuf
  br i1 %27, label %28, label %34

28:                                               ; preds = %20
  %29 = load ptr, ptr %3, align 8, !tbaa !89
  %30 = getelementptr inbounds nuw %struct.strbuf, ptr %29, i32 0, i32 2
  %31 = load ptr, ptr %30, align 8, !tbaa !82
  %32 = load i64, ptr %4, align 8, !tbaa !28
  %33 = getelementptr inbounds nuw i8, ptr %31, i64 %32
  store i8 0, ptr %33, align 1, !tbaa !47
  br label %35

34:                                               ; preds = %20
  br label %35

35:                                               ; preds = %34, %28
  ret void
}

; Function Attrs: nounwind uwtable
define dso_local i32 @cache_tree_verify(ptr noundef %0, ptr noundef %1) #0 {
  %3 = alloca ptr, align 8
  %4 = alloca ptr, align 8
  %5 = alloca %struct.strbuf, align 8
  %6 = alloca i32, align 4
  store ptr %0, ptr %3, align 8, !tbaa !48
  store ptr %1, ptr %4, align 8, !tbaa !30
  call void @llvm.lifetime.start.p0(i64 24, ptr %5) #10
  call void @llvm.memcpy.p0.p0.i64(ptr align 8 %5, ptr align 8 @__const.cache_tree_verify.path, i64 24, i1 false)
  call void @llvm.lifetime.start.p0(i64 4, ptr %6) #10
  %7 = load ptr, ptr %4, align 8, !tbaa !30
  %8 = getelementptr inbounds nuw %struct.index_state, ptr %7, i32 0, i32 6
  %9 = load ptr, ptr %8, align 8, !tbaa !32
  %10 = icmp ne ptr %9, null
  br i1 %10, label %12, label %11

11:                                               ; preds = %2
  store i32 0, ptr %6, align 4, !tbaa !16
  br label %41

12:                                               ; preds = %2
  %13 = load ptr, ptr %3, align 8, !tbaa !48
  %14 = load ptr, ptr %4, align 8, !tbaa !30
  %15 = load ptr, ptr %4, align 8, !tbaa !30
  %16 = getelementptr inbounds nuw %struct.index_state, ptr %15, i32 0, i32 6
  %17 = load ptr, ptr %16, align 8, !tbaa !32
  %18 = call i32 @verify_one(ptr noundef %13, ptr noundef %14, ptr noundef %17, ptr noundef %5)
  store i32 %18, ptr %6, align 4, !tbaa !16
  %19 = load i32, ptr %6, align 4, !tbaa !16
  %20 = icmp slt i32 %19, 0
  br i1 %20, label %21, label %22

21:                                               ; preds = %12
  br label %41

22:                                               ; preds = %12
  %23 = load i32, ptr %6, align 4, !tbaa !16
  %24 = icmp sgt i32 %23, 0
  br i1 %24, label %25, label %40

25:                                               ; preds = %22
  call void @strbuf_setlen(ptr noundef %5, i64 noundef 0)
  %26 = load ptr, ptr %3, align 8, !tbaa !48
  %27 = load ptr, ptr %4, align 8, !tbaa !30
  %28 = load ptr, ptr %4, align 8, !tbaa !30
  %29 = getelementptr inbounds nuw %struct.index_state, ptr %28, i32 0, i32 6
  %30 = load ptr, ptr %29, align 8, !tbaa !32
  %31 = call i32 @verify_one(ptr noundef %26, ptr noundef %27, ptr noundef %30, ptr noundef %5)
  store i32 %31, ptr %6, align 4, !tbaa !16
  %32 = load i32, ptr %6, align 4, !tbaa !16
  %33 = icmp slt i32 %32, 0
  br i1 %33, label %34, label %35

34:                                               ; preds = %25
  br label %41

35:                                               ; preds = %25
  %36 = load i32, ptr %6, align 4, !tbaa !16
  %37 = icmp sgt i32 %36, 0
  br i1 %37, label %38, label %39

38:                                               ; preds = %35
  call void (ptr, i32, ptr, ...) @BUG_fl(ptr noundef @.str, i32 noundef 1020, ptr noundef @.str.12) #12
  unreachable

39:                                               ; preds = %35
  br label %40

40:                                               ; preds = %39, %22
  store i32 0, ptr %6, align 4, !tbaa !16
  br label %41

41:                                               ; preds = %40, %34, %21, %11
  call void @strbuf_release(ptr noundef %5)
  %42 = load i32, ptr %6, align 4, !tbaa !16
  call void @llvm.lifetime.end.p0(i64 4, ptr %6) #10
  call void @llvm.lifetime.end.p0(i64 24, ptr %5) #10
  ret i32 %42
}