; Function Attrs: nounwind uwtable
define dso_local range(i32 -1, 1) i32 @cache_tree_verify(ptr noundef %0, ptr noundef %1) local_unnamed_addr #0 {
  %3 = alloca %struct.strbuf, align 8
  call void @llvm.lifetime.start.p0(i64 24, ptr nonnull %3) #18
  call void @llvm.memcpy.p0.p0.i64(ptr noundef nonnull align 8 dereferenceable(24) %3, ptr noundef nonnull align 8 dereferenceable(24) @__const.verify_one.tree_buf, i64 24, i1 false)
  %4 = getelementptr inbounds nuw i8, ptr %1, i64 32
  %5 = load ptr, ptr %4, align 8, !tbaa !23
  %.not = icmp eq ptr %5, null
  br i1 %.not, label %20, label %6

6:                                                ; preds = %2
  %7 = call fastcc i32 @verify_one(ptr noundef %0, ptr noundef nonnull %1, ptr noundef nonnull %5, ptr noundef %3)
  %8 = icmp slt i32 %7, 0
  br i1 %8, label %20, label %9

9:                                                ; preds = %6
  %.not15 = icmp eq i32 %7, 0
  br i1 %.not15, label %20, label %10

10:                                               ; preds = %9
  %11 = getelementptr inbounds nuw i8, ptr %3, i64 8
  store i64 0, ptr %11, align 8, !tbaa !79
  %12 = getelementptr inbounds nuw i8, ptr %3, i64 16
  %13 = load ptr, ptr %12, align 8, !tbaa !77
  %.not9.i = icmp eq ptr %13, @strbuf_slopbuf
  br i1 %.not9.i, label %strbuf_setlen.exit, label %14

14:                                               ; preds = %10
  store i8 0, ptr %13, align 1, !tbaa !38
  br label %strbuf_setlen.exit

strbuf_setlen.exit:                               ; preds = %10, %14
  %15 = load ptr, ptr %4, align 8, !tbaa !23
  %16 = call fastcc i32 @verify_one(ptr noundef %0, ptr noundef nonnull %1, ptr noundef %15, ptr noundef %3)
  %17 = icmp slt i32 %16, 0
  br i1 %17, label %20, label %18

18:                                               ; preds = %strbuf_setlen.exit
  %.not16 = icmp eq i32 %16, 0
  br i1 %.not16, label %20, label %19

19:                                               ; preds = %18
  call void (ptr, i32, ptr, ...) @BUG_fl(ptr noundef nonnull @.str, i32 noundef 1020, ptr noundef nonnull @.str.12) #20
  unreachable

20:                                               ; preds = %9, %18, %2, %strbuf_setlen.exit, %6
  %.0 = phi i32 [ -1, %6 ], [ -1, %strbuf_setlen.exit ], [ 0, %2 ], [ 0, %18 ], [ 0, %9 ]
  call void @strbuf_release(ptr noundef nonnull %3) #18
  call void @llvm.lifetime.end.p0(i64 24, ptr nonnull %3) #18
  ret i32 %.0
}